; Function Attrs: mustprogress nounwind uwtable
define hidden noundef ptr @_ZN14MethodCounters21allocate_no_exceptionERK12methodHandle(ptr noundef nonnull align 8 dereferenceable(16) %0) local_unnamed_addr #0 align 2 {
  %2 = load ptr, ptr %0, align 8
  %3 = getelementptr inbounds i8, ptr %2, i64 8
  %4 = load ptr, ptr %3, align 8
  %5 = getelementptr inbounds i8, ptr %4, i64 8
  %6 = load ptr, ptr %5, align 8
  %7 = getelementptr inbounds i8, ptr %6, i64 24
  %8 = load ptr, ptr %7, align 8
  %9 = getelementptr inbounds i8, ptr %8, i64 152
  %10 = load ptr, ptr %9, align 8
  %11 = tail call noundef ptr @_ZN12MetaspaceObjnwEmP15ClassLoaderDatamNS_4TypeE(i64 noundef 48, ptr noundef %10, i64 noundef 6, i32 noundef 13) #4
  %12 = icmp eq ptr %11, null
  br i1 %12, label %14, label %13

13:                                               ; preds = %1
  tail call void @_ZN14MethodCountersC2ERK12methodHandle(ptr noundef nonnull align 8 dereferenceable(46) %11, ptr noundef nonnull align 8 dereferenceable(16) %0)
  br label %14

14:                                               ; preds = %13, %1
  ret ptr %11
}